

Microchip Technology PIC18 LITE Macro Assembler V1.33 build 59893 
                                                                                               Fri Nov 21 10:41:32 2014

Microchip Technology Omniscient Code Generator (Lite mode) build 59893
     1                           	processor	18F25K80
     2                           	fnconf	rparam,??,?,0
     3                           	opt	pw 120
     4                           	opt	lm
     5                           	psect	idataCOMRAM,global,class=CODE,delta=1
     6                           	psect	cinit,global,reloc=2,class=CODE,delta=1
     7                           	psect	bssCOMRAM,global,class=COMRAM,space=1,delta=1
     8                           	psect	dataCOMRAM,global,class=COMRAM,space=1,delta=1
     9                           	psect	cstackCOMRAM,global,class=COMRAM,space=1,delta=1
    10                           	psect	text0,global,reloc=2,class=CODE,delta=1
    11                           	psect	text1,global,reloc=2,class=CODE,delta=1
    12                           	psect	text2,global,reloc=2,class=CODE,delta=1
    13                           	psect	text3,global,reloc=2,class=CODE,delta=1
    14                           	psect	text4,global,reloc=2,class=CODE,delta=1
    15                           	psect	intcodelo,global,reloc=2,class=CODE,delta=1
    16                           	psect	intsave_regs,global,class=BIGRAM,space=1,delta=1
    17                           	psect	rparam,global,class=COMRAM,space=1,delta=1
    18  0000                     
    19                           	psect	idataCOMRAM
    20  0002CC                     __pidataCOMRAM:
    21                           	opt stack 0
    22                           
    23                           ;initializer for _MASK
    24  0002CC  80                 	db	128
    25  0002CD  40                 	db	64
    26  0002CE  20                 	db	32
    27  0002CF  10                 	db	16
    28  0002D0  08                 	db	8
    29  0002D1  04                 	db	4
    30  0002D2  02                 	db	2
    31  0002D3  01                 	db	1
    32  0000                     _ADCON1	set	4033
    33  0000                     _ANCON0	set	3933
    34  0000                     _BAUDCON2bits	set	4025
    35  0000                     _INTCON	set	4082
    36  0000                     _OSCCON	set	4051
    37  0000                     _OSCTUNEbits	set	3995
    38  0000                     _PIE3bits	set	4003
    39  0000                     _PIR3bits	set	4004
    40  0000                     _PORTA	set	3968
    41  0000                     _PORTAbits	set	3968
    42  0000                     _PORTB	set	3969
    43  0000                     _PORTBbits	set	3969
    44  0000                     _PORTC	set	3970
    45  0000                     _PORTCbits	set	3970
    46  0000                     _RCONbits	set	4048
    47  0000                     _RCREG2	set	3962
    48  0000                     _RCSTA2bits	set	4006
    49  0000                     _SPBRG	set	4015
    50  0000                     _SPBRG2	set	3963
    51  0000                     _SPBRGH2	set	3964
    52  0000                     _TRISA	set	3986
    53  0000                     _TRISB	set	3987
    54  0000                     _TRISC	set	3988
    55  0000                     _TXREG2	set	3961
    56  0000                     _TXSTA2bits	set	4026
    57  0000                     _GIE	set	32663
    58  0000                     _PEIE	set	32662
    59  0000                     _RC2IF	set	32037
    60                           
    61                           ; #config settings
    62  0000                     
    63                           	psect	cinit
    64  000256                     __pcinit:
    65                           	opt stack 0
    66  000256                     start_initialization:
    67                           	opt stack 0
    68  000256                     __initialization:
    69                           	opt stack 0
    70                           
    71                           ; Clear objects allocated to COMRAM (41 bytes)
    72  000256  EE00  F001         	lfsr	0,__pbssCOMRAM
    73  00025A  0E29               	movlw	41
    74  00025C                     clear_0:
    75  00025C  6AEE               	clrf	postinc0,c
    76  00025E  06E8               	decf	wreg,f,c
    77  000260  E1FD               	bnz	clear_0
    78                           
    79                           ; Initialize objects allocated to COMRAM (8 bytes)
    80                           ; load TBLPTR registers with __pidataCOMRAM
    81  000262  0ECC               	movlw	low __pidataCOMRAM
    82  000264  6EF6               	movwf	tblptrl,c
    83  000266  0E02               	movlw	high __pidataCOMRAM
    84  000268  6EF7               	movwf	tblptrh,c
    85  00026A  0E00               	movlw	low (__pidataCOMRAM shr (0+16))
    86  00026C  6EF8               	movwf	tblptru,c
    87  00026E  EE00  F03C         	lfsr	0,__pdataCOMRAM
    88  000272  EE10 F008          	lfsr	1,8
    89  000276                     copy_data0:
    90  000276  0009               	tblrd		*+
    91  000278  CFF5 FFEE          	movff	tablat,postinc0
    92  00027C  50E5               	movf	postdec1,w,c
    93  00027E  50E1               	movf	fsr1l,w,c
    94  000280  E1FA               	bnz	copy_data0
    95  000282                     end_of_initialization:
    96                           	opt stack 0
    97  000282                     __end_of__initialization:
    98                           	opt stack 0
    99  000282  0100               	movlb	0
   100  000284  EF5D  F001         	goto	_main	;jump to C main() function
   101                           tblptru	equ	0xFF8
   102                           tblptrh	equ	0xFF7
   103                           tblptrl	equ	0xFF6
   104                           tablat	equ	0xFF5
   105                           postinc0	equ	0xFEE
   106                           wreg	equ	0xFE8
   107                           postdec1	equ	0xFE5
   108                           fsr1l	equ	0xFE1
   109                           
   110                           	psect	bssCOMRAM
   111  000001                     __pbssCOMRAM:
   112                           	opt stack 0
   113  000001                     _stock_led:
   114                           	opt stack 0
   115  000001                     	ds	20
   116  000015                     _led_state:
   117                           	opt stack 0
   118  000015                     	ds	16
   119  000025                     _compteur:
   120                           	opt stack 0
   121  000025                     	ds	2
   122  000027                     _compteur_clock:
   123                           	opt stack 0
   124  000027                     	ds	1
   125  000028                     _state_clock:
   126                           	opt stack 0
   127  000028                     	ds	1
   128  000029                     _tampon:
   129                           	opt stack 0
   130  000029                     	ds	1
   131                           tblptru	equ	0xFF8
   132                           tblptrh	equ	0xFF7
   133                           tblptrl	equ	0xFF6
   134                           tablat	equ	0xFF5
   135                           postinc0	equ	0xFEE
   136                           wreg	equ	0xFE8
   137                           postdec1	equ	0xFE5
   138                           fsr1l	equ	0xFE1
   139                           
   140                           	psect	dataCOMRAM
   141  00003C                     __pdataCOMRAM:
   142                           	opt stack 0
   143  00003C                     _MASK:
   144                           	opt stack 0
   145  00003C                     	ds	8
   146                           tblptru	equ	0xFF8
   147                           tblptrh	equ	0xFF7
   148                           tblptrl	equ	0xFF6
   149                           tablat	equ	0xFF5
   150                           postinc0	equ	0xFEE
   151                           wreg	equ	0xFE8
   152                           postdec1	equ	0xFE5
   153                           fsr1l	equ	0xFE1
   154                           
   155                           	psect	cstackCOMRAM
   156  00002A                     __pcstackCOMRAM:
   157                           	opt stack 0
   158  00002A                     ??_high_isr:
   159  00002A                     
   160                           ; 0 bytes @ 0x0
   161  00002A                     	ds	17
   162  00003B                     decodage@a:
   163                           	opt stack 0
   164                           
   165                           ; 1 bytes @ 0x11
   166  00003B                     	ds	1
   167  00003C                     tblptru	equ	0xFF8
   168                           tblptrh	equ	0xFF7
   169                           tblptrl	equ	0xFF6
   170                           tablat	equ	0xFF5
   171                           postinc0	equ	0xFEE
   172                           wreg	equ	0xFE8
   173                           postdec1	equ	0xFE5
   174                           fsr1l	equ	0xFE1
   175                           
   176                           ; 0 bytes @ 0x12
   177 ;;
   178 ;;Main: autosize = 0, tempsize = 0, incstack = 0, save=0
   179 ;;
   180 ;; *************** function _main *****************
   181 ;; Defined at:
   182 ;;		line 133 in file "main.c"
   183 ;; Parameters:    Size  Location     Type
   184 ;;		None
   185 ;; Auto vars:     Size  Location     Type
   186 ;;		None
   187 ;; Return value:  Size  Location     Type
   188 ;;		None               void
   189 ;; Registers used:
   190 ;;		wreg, fsr2l, fsr2h, status,2, status,0, prodl, prodh, cstack
   191 ;; Tracked objects:
   192 ;;		On entry : 0/0
   193 ;;		On exit  : 0/0
   194 ;;		Unchanged: 0/0
   195 ;; Data sizes:     COMRAM   BANK0   BANK1   BANK2   BANK3   BANK4   BANK5   BANK6   BANK7   BANK8   BANK9  BANK10  BANK1
      +1  BANK12  BANK13  BANK14
   196 ;;      Params:         0       0       0       0       0       0       0       0       0       0       0       0       
      +0       0       0       0
   197 ;;      Locals:         0       0       0       0       0       0       0       0       0       0       0       0       
      +0       0       0       0
   198 ;;      Temps:          0       0       0       0       0       0       0       0       0       0       0       0       
      +0       0       0       0
   199 ;;      Totals:         0       0       0       0       0       0       0       0       0       0       0       0       
      +0       0       0       0
   200 ;;Total ram usage:        0 bytes
   201 ;; Hardware stack levels required when called:    2
   202 ;; This function calls:
   203 ;;		_affichage
   204 ;;		_decodage
   205 ;;		_initComms
   206 ;;		_initPorts
   207 ;; This function is called by:
   208 ;;		Startup code after reset
   209 ;; This function uses a non-reentrant model
   210 ;;
   211                           
   212                           	psect	text0
   213  0002BA                     __ptext0:
   214                           	opt stack 0
   215  0002BA                     _main:
   216                           	opt stack 29
   217                           
   218                           ;main.c: 136: initPorts();
   219                           
   220                           ;incstack = 0
   221  0002BA  EC44  F001         	call	_initPorts	;wreg free
   222                           
   223                           ;main.c: 137: initComms();
   224  0002BE  EC0B  F001         	call	_initComms	;wreg free
   225  0002C2                     l751:
   226                           
   227                           ;main.c: 140: decodage();
   228  0002C2  ECBC  F000         	call	_decodage	;wreg free
   229                           
   230                           ;main.c: 141: affichage();
   231  0002C6  EC6B  F000         	call	_affichage	;wreg free
   232  0002CA  D7FB               	goto	l751
   233  0002CC                     __end_of_main:
   234                           	opt stack 0
   235                           tblptru	equ	0xFF8
   236                           tblptrh	equ	0xFF7
   237                           tblptrl	equ	0xFF6
   238                           tablat	equ	0xFF5
   239                           postinc0	equ	0xFEE
   240                           wreg	equ	0xFE8
   241                           postdec1	equ	0xFE5
   242                           fsr1l	equ	0xFE1
   243                           
   244 ;; *************** function _initPorts *****************
   245 ;; Defined at:
   246 ;;		line 6 in file "port.c"
   247 ;; Parameters:    Size  Location     Type
   248 ;;		None
   249 ;; Auto vars:     Size  Location     Type
   250 ;;		None
   251 ;; Return value:  Size  Location     Type
   252 ;;		None               void
   253 ;; Registers used:
   254 ;;		wreg, status,2
   255 ;; Tracked objects:
   256 ;;		On entry : 0/0
   257 ;;		On exit  : 0/0
   258 ;;		Unchanged: 0/0
   259 ;; Data sizes:     COMRAM   BANK0   BANK1   BANK2   BANK3   BANK4   BANK5   BANK6   BANK7   BANK8   BANK9  BANK10  BANK1
      +1  BANK12  BANK13  BANK14
   260 ;;      Params:         0       0       0       0       0       0       0       0       0       0       0       0       
      +0       0       0       0
   261 ;;      Locals:         0       0       0       0       0       0       0       0       0       0       0       0       
      +0       0       0       0
   262 ;;      Temps:          0       0       0       0       0       0       0       0       0       0       0       0       
      +0       0       0       0
   263 ;;      Totals:         0       0       0       0       0       0       0       0       0       0       0       0       
      +0       0       0       0
   264 ;;Total ram usage:        0 bytes
   265 ;; Hardware stack levels used:    1
   266 ;; Hardware stack levels required when called:    1
   267 ;; This function calls:
   268 ;;		Nothing
   269 ;; This function is called by:
   270 ;;		_main
   271 ;; This function uses a non-reentrant model
   272 ;;
   273                           
   274                           	psect	text1
   275  000288                     __ptext1:
   276                           	opt stack 0
   277  000288                     _initPorts:
   278                           	opt stack 29
   279                           
   280                           ;port.c: 10: OSCCON= 0x70;
   281                           
   282                           ;incstack = 0
   283  000288  0E70               	movlw	112
   284  00028A  6ED3               	movwf	4051,c	;volatile
   285                           
   286                           ;port.c: 12: ANCON0 = 0b00000000;
   287  00028C  0E00               	movlw	0
   288  00028E  010F               	movlb	15	; () banked
   289  000290  6F5D               	movwf	93,b	;volatile
   290                           
   291                           ;port.c: 13: ADCON1 = 0b00000000;
   292  000292  0E00               	movlw	0
   293  000294  6EC1               	movwf	4033,c	;volatile
   294                           
   295                           ;port.c: 18: PORTA = 0b00000000;
   296  000296  0E00               	movlw	0
   297  000298  6E80               	movwf	3968,c	;volatile
   298                           
   299                           ;port.c: 19: TRISA = 0b00000000;
   300  00029A  0E00               	movlw	0
   301  00029C  6E92               	movwf	3986,c	;volatile
   302                           
   303                           ;port.c: 21: PORTB = 0b01000000;
   304  00029E  0E40               	movlw	64
   305  0002A0  6E81               	movwf	3969,c	;volatile
   306                           
   307                           ;port.c: 22: TRISB = 0b10000000;
   308  0002A2  0E80               	movlw	128
   309  0002A4  6E93               	movwf	3987,c	;volatile
   310                           
   311                           ;port.c: 24: PORTC = 0b00000000;
   312  0002A6  0E00               	movlw	0
   313  0002A8  6E82               	movwf	3970,c	;volatile
   314                           
   315                           ;port.c: 25: TRISC = 0b00000000;
   316  0002AA  0E00               	movlw	0
   317  0002AC  6E94               	movwf	3988,c	;volatile
   318                           
   319                           ; BSR set to: 15
   320                           ;port.c: 27: GIE = 1;
   321  0002AE  8EF2               	bsf	intcon,7,c	;volatile
   322                           
   323                           ; BSR set to: 15
   324                           ;port.c: 28: PEIE = 1;
   325  0002B0  8CF2               	bsf	intcon,6,c	;volatile
   326                           
   327                           ;port.c: 29: INTCON =0b11100000;
   328  0002B2  0EE0               	movlw	224
   329  0002B4  6EF2               	movwf	intcon,c	;volatile
   330                           
   331                           ; BSR set to: 15
   332                           ;port.c: 30: OSCTUNEbits.PLLEN = 1;
   333  0002B6  8C9B               	bsf	3995,6,c	;volatile
   334                           
   335                           ; BSR set to: 15
   336  0002B8  0012               	return	
   337  0002BA                     __end_of_initPorts:
   338                           	opt stack 0
   339                           tblptru	equ	0xFF8
   340                           tblptrh	equ	0xFF7
   341                           tblptrl	equ	0xFF6
   342                           tablat	equ	0xFF5
   343                           intcon	equ	0xFF2
   344                           postinc0	equ	0xFEE
   345                           wreg	equ	0xFE8
   346                           postdec1	equ	0xFE5
   347                           fsr1l	equ	0xFE1
   348                           
   349 ;; *************** function _initComms *****************
   350 ;; Defined at:
   351 ;;		line 6 in file "usart.c"
   352 ;; Parameters:    Size  Location     Type
   353 ;;		None
   354 ;; Auto vars:     Size  Location     Type
   355 ;;		None
   356 ;; Return value:  Size  Location     Type
   357 ;;		None               void
   358 ;; Registers used:
   359 ;;		wreg, status,2
   360 ;; Tracked objects:
   361 ;;		On entry : 0/0
   362 ;;		On exit  : 0/0
   363 ;;		Unchanged: 0/0
   364 ;; Data sizes:     COMRAM   BANK0   BANK1   BANK2   BANK3   BANK4   BANK5   BANK6   BANK7   BANK8   BANK9  BANK10  BANK1
      +1  BANK12  BANK13  BANK14
   365 ;;      Params:         0       0       0       0       0       0       0       0       0       0       0       0       
      +0       0       0       0
   366 ;;      Locals:         0       0       0       0       0       0       0       0       0       0       0       0       
      +0       0       0       0
   367 ;;      Temps:          0       0       0       0       0       0       0       0       0       0       0       0       
      +0       0       0       0
   368 ;;      Totals:         0       0       0       0       0       0       0       0       0       0       0       0       
      +0       0       0       0
   369 ;;Total ram usage:        0 bytes
   370 ;; Hardware stack levels used:    1
   371 ;; Hardware stack levels required when called:    1
   372 ;; This function calls:
   373 ;;		Nothing
   374 ;; This function is called by:
   375 ;;		_main
   376 ;; This function uses a non-reentrant model
   377 ;;
   378                           
   379                           	psect	text2
   380  000216                     __ptext2:
   381                           	opt stack 0
   382  000216                     _initComms:
   383                           	opt stack 29
   384                           
   385                           ;usart.c: 8: TXSTA2bits.CSRC = 0;
   386                           
   387                           ; BSR set to: 15
   388                           ;incstack = 0
   389  000216  9EBA               	bcf	4026,7,c	;volatile
   390                           
   391                           ;usart.c: 9: TXSTA2bits.TX9 = 0;
   392  000218  9CBA               	bcf	4026,6,c	;volatile
   393                           
   394                           ;usart.c: 10: TXSTA2bits.TXEN = 1;
   395  00021A  8ABA               	bsf	4026,5,c	;volatile
   396                           
   397                           ;usart.c: 11: TXSTA2bits.SYNC = 0;
   398  00021C  98BA               	bcf	4026,4,c	;volatile
   399                           
   400                           ;usart.c: 12: TXSTA2bits.SENDB = 0;
   401  00021E  96BA               	bcf	4026,3,c	;volatile
   402                           
   403                           ;usart.c: 13: TXSTA2bits.BRGH = 1;
   404  000220  84BA               	bsf	4026,2,c	;volatile
   405                           
   406                           ;usart.c: 14: TXSTA2bits.TRMT = 1;
   407  000222  82BA               	bsf	4026,1,c	;volatile
   408                           
   409                           ;usart.c: 15: TXSTA2bits.TX9D = 0;
   410  000224  90BA               	bcf	4026,0,c	;volatile
   411                           
   412                           ;usart.c: 17: RCSTA2bits.SPEN = 1;
   413  000226  8EA6               	bsf	4006,7,c	;volatile
   414                           
   415                           ;usart.c: 18: RCSTA2bits.RX9 = 0;
   416  000228  9CA6               	bcf	4006,6,c	;volatile
   417                           
   418                           ;usart.c: 19: RCSTA2bits.SREN = 0;
   419  00022A  9AA6               	bcf	4006,5,c	;volatile
   420                           
   421                           ;usart.c: 20: RCSTA2bits.CREN = 1;
   422  00022C  88A6               	bsf	4006,4,c	;volatile
   423                           
   424                           ;usart.c: 21: RCSTA2bits.ADDEN = 0;
   425  00022E  96A6               	bcf	4006,3,c	;volatile
   426                           
   427                           ;usart.c: 22: RCSTA2bits.FERR = 0;
   428  000230  94A6               	bcf	4006,2,c	;volatile
   429                           
   430                           ;usart.c: 23: RCSTA2bits.OERR = 0;
   431  000232  92A6               	bcf	4006,1,c	;volatile
   432                           
   433                           ;usart.c: 24: RCSTA2bits.RX9D = 0;
   434  000234  90A6               	bcf	4006,0,c	;volatile
   435                           
   436                           ;usart.c: 26: BAUDCON2bits.ABDOVF = 0;
   437  000236  9EB9               	bcf	4025,7,c	;volatile
   438                           
   439                           ;usart.c: 27: BAUDCON2bits.RCIDL = 1;
   440  000238  8CB9               	bsf	4025,6,c	;volatile
   441                           
   442                           ;usart.c: 28: BAUDCON2bits.RXDTP = 0;
   443  00023A  9AB9               	bcf	4025,5,c	;volatile
   444                           
   445                           ;usart.c: 29: BAUDCON2bits.TXCKP = 0;
   446  00023C  98B9               	bcf	4025,4,c	;volatile
   447                           
   448                           ;usart.c: 30: BAUDCON2bits.BRG16 = 1;
   449  00023E  86B9               	bsf	4025,3,c	;volatile
   450                           
   451                           ;usart.c: 31: BAUDCON2bits.WUE = 0;
   452  000240  92B9               	bcf	4025,1,c	;volatile
   453                           
   454                           ;usart.c: 32: BAUDCON2bits.ABDEN = 0;
   455  000242  90B9               	bcf	4025,0,c	;volatile
   456                           
   457                           ;usart.c: 34: PIE3bits.RC2IE = 1;
   458  000244  8AA3               	bsf	4003,5,c	;volatile
   459                           
   460                           ;usart.c: 35: RCONbits.IPEN = 1;
   461  000246  8ED0               	bsf	4048,7,c	;volatile
   462                           
   463                           ;usart.c: 45: SPBRG = 115;
   464  000248  0E73               	movlw	115
   465  00024A  6EAF               	movwf	4015,c	;volatile
   466                           
   467                           ;usart.c: 46: SPBRGH2 = 0;
   468  00024C  0E00               	movlw	0
   469  00024E  6E7C               	movwf	3964,c	;volatile
   470                           
   471                           ;usart.c: 47: SPBRG2 = 137;
   472  000250  0E89               	movlw	137
   473  000252  6E7B               	movwf	3963,c	;volatile
   474  000254  0012               	return	
   475  000256                     __end_of_initComms:
   476                           	opt stack 0
   477                           tblptru	equ	0xFF8
   478                           tblptrh	equ	0xFF7
   479                           tblptrl	equ	0xFF6
   480                           tablat	equ	0xFF5
   481                           intcon	equ	0xFF2
   482                           postinc0	equ	0xFEE
   483                           wreg	equ	0xFE8
   484                           postdec1	equ	0xFE5
   485                           fsr1l	equ	0xFE1
   486                           
   487 ;; *************** function _decodage *****************
   488 ;; Defined at:
   489 ;;		line 146 in file "main.c"
   490 ;; Parameters:    Size  Location     Type
   491 ;;		None
   492 ;; Auto vars:     Size  Location     Type
   493 ;;  a               1   17[COMRAM] unsigned char 
   494 ;; Return value:  Size  Location     Type
   495 ;;		None               void
   496 ;; Registers used:
   497 ;;		wreg, fsr2l, fsr2h, status,2, status,0, prodl, prodh
   498 ;; Tracked objects:
   499 ;;		On entry : 0/0
   500 ;;		On exit  : 0/0
   501 ;;		Unchanged: 0/0
   502 ;; Data sizes:     COMRAM   BANK0   BANK1   BANK2   BANK3   BANK4   BANK5   BANK6   BANK7   BANK8   BANK9  BANK10  BANK1
      +1  BANK12  BANK13  BANK14
   503 ;;      Params:         0       0       0       0       0       0       0       0       0       0       0       0       
      +0       0       0       0
   504 ;;      Locals:         1       0       0       0       0       0       0       0       0       0       0       0       
      +0       0       0       0
   505 ;;      Temps:          0       0       0       0       0       0       0       0       0       0       0       0       
      +0       0       0       0
   506 ;;      Totals:         1       0       0       0       0       0       0       0       0       0       0       0       
      +0       0       0       0
   507 ;;Total ram usage:        1 bytes
   508 ;; Hardware stack levels used:    1
   509 ;; Hardware stack levels required when called:    1
   510 ;; This function calls:
   511 ;;		Nothing
   512 ;; This function is called by:
   513 ;;		_main
   514 ;; This function uses a non-reentrant model
   515 ;;
   516                           
   517                           	psect	text3
   518  000178                     __ptext3:
   519                           	opt stack 0
   520  000178                     _decodage:
   521                           	opt stack 29
   522                           
   523                           ;main.c: 147: char a = 0;
   524                           
   525                           ;incstack = 0
   526  000178  0E00               	movlw	0
   527  00017A  6E3B               	movwf	decodage@a,c
   528                           
   529                           ;main.c: 148: for (a = 0; a < 8; a++) {
   530  00017C  0E00               	movlw	0
   531  00017E  6E3B               	movwf	decodage@a,c
   532  000180  0E07               	movlw	7
   533  000182  643B               	cpfsgt	decodage@a,c
   534  000184  D001               	goto	l719
   535  000186  0012               	return	
   536  000188                     l719:
   537                           
   538                           ;main.c: 149: if (MASK[a] & stock_led[2 * 7])
   539  000188  503B               	movf	decodage@a,w,c
   540  00018A  0D01               	mullw	1
   541  00018C  0E3C               	movlw	low _MASK
   542  00018E  24F3               	addwf	prodl,w,c
   543  000190  6ED9               	movwf	fsr2l,c
   544  000192  0E00               	movlw	high _MASK
   545  000194  20F4               	addwfc	prodh,w,c
   546  000196  6EDA               	movwf	fsr2h,c
   547  000198  50DF               	movf	indf2,w,c
   548  00019A  140F               	andwf	_stock_led+14,w,c
   549  00019C  0900               	iorlw	0
   550  00019E  B4D8               	btfsc	status,2,c
   551  0001A0  D00A               	goto	l723
   552                           
   553                           ;main.c: 150: {
   554                           ;main.c: 151: led_state[0][a] = 1;
   555  0001A2  503B               	movf	decodage@a,w,c
   556  0001A4  0D01               	mullw	1
   557  0001A6  0E15               	movlw	low _led_state
   558  0001A8  24F3               	addwf	prodl,w,c
   559  0001AA  6ED9               	movwf	fsr2l,c
   560  0001AC  0E00               	movlw	high _led_state
   561  0001AE  20F4               	addwfc	prodh,w,c
   562  0001B0  6EDA               	movwf	fsr2h,c
   563  0001B2  0E01               	movlw	1
   564  0001B4  D009               	goto	L1
   565  0001B6                     l723:
   566                           
   567                           ;main.c: 153: led_state[0][a] = 0;
   568  0001B6  503B               	movf	decodage@a,w,c
   569  0001B8  0D01               	mullw	1
   570  0001BA  0E15               	movlw	low _led_state
   571  0001BC  24F3               	addwf	prodl,w,c
   572  0001BE  6ED9               	movwf	fsr2l,c
   573  0001C0  0E00               	movlw	high _led_state
   574  0001C2  20F4               	addwfc	prodh,w,c
   575  0001C4  6EDA               	movwf	fsr2h,c
   576  0001C6  0E00               	movlw	0
   577  0001C8                     L1:
   578  0001C8  6EDF               	movwf	indf2,c
   579                           
   580                           ;main.c: 154: }
   581                           ;main.c: 156: if (MASK[a] & stock_led[2 * 7 + 1]) {
   582  0001CA  503B               	movf	decodage@a,w,c
   583  0001CC  0D01               	mullw	1
   584  0001CE  0E3C               	movlw	low _MASK
   585  0001D0  24F3               	addwf	prodl,w,c
   586  0001D2  6ED9               	movwf	fsr2l,c
   587  0001D4  0E00               	movlw	high _MASK
   588  0001D6  20F4               	addwfc	prodh,w,c
   589  0001D8  6EDA               	movwf	fsr2h,c
   590  0001DA  50DF               	movf	indf2,w,c
   591  0001DC  1410               	andwf	_stock_led+15,w,c
   592  0001DE  0900               	iorlw	0
   593  0001E0  B4D8               	btfsc	status,2,c
   594  0001E2  D00A               	goto	l727
   595                           
   596                           ;main.c: 157: led_state[1][a] = 1;
   597  0001E4  503B               	movf	decodage@a,w,c
   598  0001E6  0D01               	mullw	1
   599  0001E8  0E1D               	movlw	low (_led_state+8)
   600  0001EA  24F3               	addwf	prodl,w,c
   601  0001EC  6ED9               	movwf	fsr2l,c
   602  0001EE  0E00               	movlw	high (_led_state+8)
   603  0001F0  20F4               	addwfc	prodh,w,c
   604  0001F2  6EDA               	movwf	fsr2h,c
   605  0001F4  0E01               	movlw	1
   606  0001F6  D009               	goto	L2
   607  0001F8                     l727:
   608                           
   609                           ;main.c: 159: led_state[1][a] = 0;
   610  0001F8  503B               	movf	decodage@a,w,c
   611  0001FA  0D01               	mullw	1
   612  0001FC  0E1D               	movlw	low (_led_state+8)
   613  0001FE  24F3               	addwf	prodl,w,c
   614  000200  6ED9               	movwf	fsr2l,c
   615  000202  0E00               	movlw	high (_led_state+8)
   616  000204  20F4               	addwfc	prodh,w,c
   617  000206  6EDA               	movwf	fsr2h,c
   618  000208  0E00               	movlw	0
   619  00020A                     L2:
   620  00020A  6EDF               	movwf	indf2,c
   621  00020C  2A3B               	incf	decodage@a,f,c
   622  00020E  0E07               	movlw	7
   623  000210  643B               	cpfsgt	decodage@a,c
   624  000212  D7BA               	goto	l719
   625  000214  0012               	return	
   626  000216                     __end_of_decodage:
   627                           	opt stack 0
   628                           tblptru	equ	0xFF8
   629                           tblptrh	equ	0xFF7
   630                           tblptrl	equ	0xFF6
   631                           tablat	equ	0xFF5
   632                           prodh	equ	0xFF4
   633                           prodl	equ	0xFF3
   634                           intcon	equ	0xFF2
   635                           postinc0	equ	0xFEE
   636                           wreg	equ	0xFE8
   637                           postdec1	equ	0xFE5
   638                           fsr1l	equ	0xFE1
   639                           indf2	equ	0xFDF
   640                           fsr2h	equ	0xFDA
   641                           fsr2l	equ	0xFD9
   642                           status	equ	0xFD8
   643                           
   644 ;; *************** function _affichage *****************
   645 ;; Defined at:
   646 ;;		line 176 in file "main.c"
   647 ;; Parameters:    Size  Location     Type
   648 ;;		None
   649 ;; Auto vars:     Size  Location     Type
   650 ;;		None
   651 ;; Return value:  Size  Location     Type
   652 ;;		None               void
   653 ;; Registers used:
   654 ;;		None
   655 ;; Tracked objects:
   656 ;;		On entry : 0/0
   657 ;;		On exit  : 0/0
   658 ;;		Unchanged: 0/0
   659 ;; Data sizes:     COMRAM   BANK0   BANK1   BANK2   BANK3   BANK4   BANK5   BANK6   BANK7   BANK8   BANK9  BANK10  BANK1
      +1  BANK12  BANK13  BANK14
   660 ;;      Params:         0       0       0       0       0       0       0       0       0       0       0       0       
      +0       0       0       0
   661 ;;      Locals:         0       0       0       0       0       0       0       0       0       0       0       0       
      +0       0       0       0
   662 ;;      Temps:          0       0       0       0       0       0       0       0       0       0       0       0       
      +0       0       0       0
   663 ;;      Totals:         0       0       0       0       0       0       0       0       0       0       0       0       
      +0       0       0       0
   664 ;;Total ram usage:        0 bytes
   665 ;; Hardware stack levels used:    1
   666 ;; Hardware stack levels required when called:    1
   667 ;; This function calls:
   668 ;;		Nothing
   669 ;; This function is called by:
   670 ;;		_main
   671 ;; This function uses a non-reentrant model
   672 ;;
   673                           
   674                           	psect	text4
   675  0000D6                     __ptext4:
   676                           	opt stack 0
   677  0000D6                     _affichage:
   678                           	opt stack 29
   679                           
   680                           ;main.c: 177: PORTAbits.RA0 = led_state[0][0];
   681                           
   682                           ;incstack = 0
   683  0000D6  B015               	btfsc	_led_state,0,c
   684  0000D8  D002               	bra	u55
   685  0000DA  9080               	bcf	3968,0,c	;volatile
   686  0000DC  D001               	bra	u56
   687  0000DE                     u55:
   688  0000DE  8080               	bsf	3968,0,c	;volatile
   689  0000E0                     u56:
   690                           
   691                           ;main.c: 178: PORTAbits.RA3 = led_state[0][1];
   692  0000E0  B016               	btfsc	_led_state+1,0,c
   693  0000E2  D002               	bra	u65
   694  0000E4  9680               	bcf	3968,3,c	;volatile
   695  0000E6  D001               	bra	u66
   696  0000E8                     u65:
   697  0000E8  8680               	bsf	3968,3,c	;volatile
   698  0000EA                     u66:
   699                           
   700                           ;main.c: 179: PORTAbits.RA6 = led_state[0][2];
   701  0000EA  B017               	btfsc	_led_state+2,0,c
   702  0000EC  D002               	bra	u75
   703  0000EE  9C80               	bcf	3968,6,c	;volatile
   704  0000F0  D001               	bra	u76
   705  0000F2                     u75:
   706  0000F2  8C80               	bsf	3968,6,c	;volatile
   707  0000F4                     u76:
   708                           
   709                           ;main.c: 180: PORTCbits.RC3 = led_state[0][3];
   710  0000F4  B018               	btfsc	_led_state+3,0,c
   711  0000F6  D002               	bra	u85
   712  0000F8  9682               	bcf	3970,3,c	;volatile
   713  0000FA  D001               	bra	u86
   714  0000FC                     u85:
   715  0000FC  8682               	bsf	3970,3,c	;volatile
   716  0000FE                     u86:
   717                           
   718                           ;main.c: 181: PORTCbits.RC7 = led_state[0][4];
   719  0000FE  B019               	btfsc	_led_state+4,0,c
   720  000100  D002               	bra	u95
   721  000102  9E82               	bcf	3970,7,c	;volatile
   722  000104  D001               	bra	u96
   723  000106                     u95:
   724  000106  8E82               	bsf	3970,7,c	;volatile
   725  000108                     u96:
   726                           
   727                           ;main.c: 182: PORTBbits.RB3 = led_state[0][5];
   728  000108  B01A               	btfsc	_led_state+5,0,c
   729  00010A  D002               	bra	u105
   730  00010C  9681               	bcf	3969,3,c	;volatile
   731  00010E  D001               	bra	u106
   732  000110                     u105:
   733  000110  8681               	bsf	3969,3,c	;volatile
   734  000112                     u106:
   735                           
   736                           ;main.c: 183: PORTAbits.RA7 = led_state[0][6];
   737  000112  B01B               	btfsc	_led_state+6,0,c
   738  000114  D002               	bra	u115
   739  000116  9E80               	bcf	3968,7,c	;volatile
   740  000118  D001               	bra	u116
   741  00011A                     u115:
   742  00011A  8E80               	bsf	3968,7,c	;volatile
   743  00011C                     u116:
   744                           
   745                           ;main.c: 184: PORTCbits.RC5 = led_state[0][7];
   746  00011C  B01C               	btfsc	_led_state+7,0,c
   747  00011E  D002               	bra	u125
   748  000120  9A82               	bcf	3970,5,c	;volatile
   749  000122  D001               	bra	u126
   750  000124                     u125:
   751  000124  8A82               	bsf	3970,5,c	;volatile
   752  000126                     u126:
   753                           
   754                           ;main.c: 186: PORTAbits.RA1 = led_state[1][0];
   755  000126  B01D               	btfsc	_led_state+8,0,c
   756  000128  D002               	bra	u135
   757  00012A  9280               	bcf	3968,1,c	;volatile
   758  00012C  D001               	bra	u136
   759  00012E                     u135:
   760  00012E  8280               	bsf	3968,1,c	;volatile
   761  000130                     u136:
   762                           
   763                           ;main.c: 187: PORTAbits.RA2 = led_state[1][1];
   764  000130  B01E               	btfsc	_led_state+9,0,c
   765  000132  D002               	bra	u145
   766  000134  9480               	bcf	3968,2,c	;volatile
   767  000136  D001               	bra	u146
   768  000138                     u145:
   769  000138  8480               	bsf	3968,2,c	;volatile
   770  00013A                     u146:
   771                           
   772                           ;main.c: 188: PORTCbits.RC0 = led_state[1][2];
   773  00013A  B01F               	btfsc	_led_state+10,0,c
   774  00013C  D002               	bra	u155
   775  00013E  9082               	bcf	3970,0,c	;volatile
   776  000140  D001               	bra	u156
   777  000142                     u155:
   778  000142  8082               	bsf	3970,0,c	;volatile
   779  000144                     u156:
   780                           
   781                           ;main.c: 189: PORTCbits.RC2 = led_state[1][3];
   782  000144  B020               	btfsc	_led_state+11,0,c
   783  000146  D002               	bra	u165
   784  000148  9482               	bcf	3970,2,c	;volatile
   785  00014A  D001               	bra	u166
   786  00014C                     u165:
   787  00014C  8482               	bsf	3970,2,c	;volatile
   788  00014E                     u166:
   789                           
   790                           ;main.c: 190: PORTCbits.RC1 = led_state[1][4];
   791  00014E  B021               	btfsc	_led_state+12,0,c
   792  000150  D002               	bra	u175
   793  000152  9282               	bcf	3970,1,c	;volatile
   794  000154  D001               	bra	u176
   795  000156                     u175:
   796  000156  8282               	bsf	3970,1,c	;volatile
   797  000158                     u176:
   798                           
   799                           ;main.c: 191: PORTBbits.RB2 = led_state[1][5];
   800  000158  B022               	btfsc	_led_state+13,0,c
   801  00015A  D002               	bra	u185
   802  00015C  9481               	bcf	3969,2,c	;volatile
   803  00015E  D001               	bra	u186
   804  000160                     u185:
   805  000160  8481               	bsf	3969,2,c	;volatile
   806  000162                     u186:
   807                           
   808                           ;main.c: 192: PORTCbits.RC6 = led_state[1][6];
   809  000162  B023               	btfsc	_led_state+14,0,c
   810  000164  D002               	bra	u195
   811  000166  9C82               	bcf	3970,6,c	;volatile
   812  000168  D001               	bra	u196
   813  00016A                     u195:
   814  00016A  8C82               	bsf	3970,6,c	;volatile
   815  00016C                     u196:
   816                           
   817                           ;main.c: 193: PORTCbits.RC4 = led_state[1][7];
   818  00016C  B024               	btfsc	_led_state+15,0,c
   819  00016E  D002               	bra	u205
   820  000170  9882               	bcf	3970,4,c	;volatile
   821  000172  D001               	bra	u206
   822  000174                     u205:
   823  000174  8882               	bsf	3970,4,c	;volatile
   824  000176                     u206:
   825  000176  0012               	return	
   826  000178                     __end_of_affichage:
   827                           	opt stack 0
   828                           tblptru	equ	0xFF8
   829                           tblptrh	equ	0xFF7
   830                           tblptrl	equ	0xFF6
   831                           tablat	equ	0xFF5
   832                           prodh	equ	0xFF4
   833                           prodl	equ	0xFF3
   834                           intcon	equ	0xFF2
   835                           postinc0	equ	0xFEE
   836                           wreg	equ	0xFE8
   837                           postdec1	equ	0xFE5
   838                           fsr1l	equ	0xFE1
   839                           indf2	equ	0xFDF
   840                           fsr2h	equ	0xFDA
   841                           fsr2l	equ	0xFD9
   842                           status	equ	0xFD8
   843                           
   844 ;; *************** function _high_isr *****************
   845 ;; Defined at:
   846 ;;		line 112 in file "main.c"
   847 ;; Parameters:    Size  Location     Type
   848 ;;		None
   849 ;; Auto vars:     Size  Location     Type
   850 ;;		None
   851 ;; Return value:  Size  Location     Type
   852 ;;		None               void
   853 ;; Registers used:
   854 ;;		wreg, fsr2l, fsr2h, status,2, status,0
   855 ;; Tracked objects:
   856 ;;		On entry : 0/0
   857 ;;		On exit  : 0/0
   858 ;;		Unchanged: 0/0
   859 ;; Data sizes:     COMRAM   BANK0   BANK1   BANK2   BANK3   BANK4   BANK5   BANK6   BANK7   BANK8   BANK9  BANK10  BANK1
      +1  BANK12  BANK13  BANK14
   860 ;;      Params:         0       0       0       0       0       0       0       0       0       0       0       0       
      +0       0       0       0
   861 ;;      Locals:         0       0       0       0       0       0       0       0       0       0       0       0       
      +0       0       0       0
   862 ;;      Temps:         17       0       0       0       0       0       0       0       0       0       0       0       
      +0       0       0       0
   863 ;;      Totals:        17       0       0       0       0       0       0       0       0       0       0       0       
      +0       0       0       0
   864 ;;Total ram usage:       17 bytes
   865 ;; Hardware stack levels used:    1
   866 ;; This function calls:
   867 ;;		Nothing
   868 ;; This function is called by:
   869 ;;		Interrupt level 1
   870 ;; This function uses a non-reentrant model
   871 ;;
   872                           
   873                           	psect	intcodelo
   874  000018                     __pintcodelo:
   875                           	opt stack 0
   876  000018                     _high_isr:
   877                           	opt stack 29
   878                           
   879                           ;incstack = 0
   880  000018  CFD8 F02A          	movff	status,??_high_isr
   881  00001C  CFE8 F02B          	movff	wreg,??_high_isr+1
   882  000020  CFE0 F02C          	movff	bsr,??_high_isr+2
   883  000024  CFFA F02D          	movff	pclath,??_high_isr+3
   884  000028  CFFB F02E          	movff	pclatu,??_high_isr+4
   885  00002C  CFE9 F02F          	movff	fsr0l,??_high_isr+5
   886  000030  CFEA F030          	movff	fsr0h,??_high_isr+6
   887  000034  CFE1 F031          	movff	fsr1l,??_high_isr+7
   888  000038  CFE2 F032          	movff	fsr1h,??_high_isr+8
   889  00003C  CFD9 F033          	movff	fsr2l,??_high_isr+9
   890  000040  CFDA F034          	movff	fsr2h,??_high_isr+10
   891  000044  CFF3 F035          	movff	prodl,??_high_isr+11
   892  000048  CFF4 F036          	movff	prodh,??_high_isr+12
   893  00004C  CFF6 F037          	movff	tblptrl,??_high_isr+13
   894  000050  CFF7 F038          	movff	tblptrh,??_high_isr+14
   895  000054  CFF8 F039          	movff	tblptru,??_high_isr+15
   896  000058  CFF5 F03A          	movff	tablat,??_high_isr+16
   897                           
   898                           ;main.c: 113: if (RC2IF) {
   899  00005C  AAA4               	btfss	4004,5,c	;volatile
   900  00005E  D015               	goto	i1l747
   901                           
   902                           ;main.c: 114: tampon = RCREG2;
   903  000060  CF7A F029          	movff	3962,_tampon	;volatile
   904                           
   905                           ;main.c: 115: if (compteur == 16) {
   906  000064  5025               	movf	_compteur,w,c
   907  000066  0A10               	xorlw	16
   908  000068  1026               	iorwf	_compteur+1,w,c
   909  00006A  A4D8               	btfss	status,2,c
   910  00006C  D004               	goto	i1l743
   911                           
   912                           ;main.c: 116: compteur = 0;
   913  00006E  0E00               	movlw	0
   914  000070  6E26               	movwf	_compteur+1,c
   915  000072  0E00               	movlw	0
   916  000074  6E25               	movwf	_compteur,c
   917  000076                     i1l743:
   918                           
   919                           ;main.c: 117: }
   920                           ;main.c: 118: stock_led[compteur] = tampon;
   921  000076  0E01               	movlw	low _stock_led
   922  000078  2425               	addwf	_compteur,w,c
   923  00007A  6ED9               	movwf	fsr2l,c
   924  00007C  0E00               	movlw	high _stock_led
   925  00007E  2026               	addwfc	_compteur+1,w,c
   926  000080  6EDA               	movwf	fsr2h,c
   927  000082  C029  FFDF         	movff	_tampon,indf2
   928                           
   929                           ;main.c: 119: compteur++;
   930  000086  4A25               	infsnz	_compteur,f,c
   931  000088  2A26               	incf	_compteur+1,f,c
   932  00008A                     i1l747:
   933                           
   934                           ;main.c: 120: }
   935                           ;main.c: 121: RC2IF = 0;
   936  00008A  9AA4               	bcf	4004,5,c	;volatile
   937  00008C  C03A  FFF5         	movff	??_high_isr+16,tablat
   938  000090  C039  FFF8         	movff	??_high_isr+15,tblptru
   939  000094  C038  FFF7         	movff	??_high_isr+14,tblptrh
   940  000098  C037  FFF6         	movff	??_high_isr+13,tblptrl
   941  00009C  C036  FFF4         	movff	??_high_isr+12,prodh
   942  0000A0  C035  FFF3         	movff	??_high_isr+11,prodl
   943  0000A4  C034  FFDA         	movff	??_high_isr+10,fsr2h
   944  0000A8  C033  FFD9         	movff	??_high_isr+9,fsr2l
   945  0000AC  C032  FFE2         	movff	??_high_isr+8,fsr1h
   946  0000B0  C031  FFE1         	movff	??_high_isr+7,fsr1l
   947  0000B4  C030  FFEA         	movff	??_high_isr+6,fsr0h
   948  0000B8  C02F  FFE9         	movff	??_high_isr+5,fsr0l
   949  0000BC  C02E  FFFB         	movff	??_high_isr+4,pclatu
   950  0000C0  C02D  FFFA         	movff	??_high_isr+3,pclath
   951  0000C4  C02C  FFE0         	movff	??_high_isr+2,bsr
   952  0000C8  C02B  FFE8         	movff	??_high_isr+1,wreg
   953  0000CC  C02A  FFD8         	movff	??_high_isr,status
   954  0000D0  0010               	retfie	
   955  0000D2                     __end_of_high_isr:
   956                           	opt stack 0
   957  0000                     pclatu	equ	0xFFB
   958                           pclath	equ	0xFFA
   959                           tblptru	equ	0xFF8
   960                           tblptrh	equ	0xFF7
   961                           tblptrl	equ	0xFF6
   962                           tablat	equ	0xFF5
   963                           prodh	equ	0xFF4
   964                           prodl	equ	0xFF3
   965                           intcon	equ	0xFF2
   966                           postinc0	equ	0xFEE
   967                           fsr0h	equ	0xFEA
   968                           fsr0l	equ	0xFE9
   969                           wreg	equ	0xFE8
   970                           postdec1	equ	0xFE5
   971                           fsr1h	equ	0xFE2
   972                           fsr1l	equ	0xFE1
   973                           bsr	equ	0xFE0
   974                           indf2	equ	0xFDF
   975                           fsr2h	equ	0xFDA
   976                           fsr2l	equ	0xFD9
   977                           status	equ	0xFD8
   978                           pclatu	equ	0xFFB
   979                           pclath	equ	0xFFA
   980                           tblptru	equ	0xFF8
   981                           tblptrh	equ	0xFF7
   982                           tblptrl	equ	0xFF6
   983                           tablat	equ	0xFF5
   984                           prodh	equ	0xFF4
   985                           prodl	equ	0xFF3
   986                           intcon	equ	0xFF2
   987                           postinc0	equ	0xFEE
   988                           fsr0h	equ	0xFEA
   989                           fsr0l	equ	0xFE9
   990                           wreg	equ	0xFE8
   991                           postdec1	equ	0xFE5
   992                           fsr1h	equ	0xFE2
   993                           fsr1l	equ	0xFE1
   994                           bsr	equ	0xFE0
   995                           indf2	equ	0xFDF
   996                           fsr2h	equ	0xFDA
   997                           fsr2l	equ	0xFD9
   998                           status	equ	0xFD8
   999                           
  1000                           	psect	rparam
  1001  0000                     pclatu	equ	0xFFB
  1002                           pclath	equ	0xFFA
  1003                           tblptru	equ	0xFF8
  1004                           tblptrh	equ	0xFF7
  1005                           tblptrl	equ	0xFF6
  1006                           tablat	equ	0xFF5
  1007                           prodh	equ	0xFF4
  1008                           prodl	equ	0xFF3
  1009                           intcon	equ	0xFF2
  1010                           postinc0	equ	0xFEE
  1011                           fsr0h	equ	0xFEA
  1012                           fsr0l	equ	0xFE9
  1013                           wreg	equ	0xFE8
  1014                           postdec1	equ	0xFE5
  1015                           fsr1h	equ	0xFE2
  1016                           fsr1l	equ	0xFE1
  1017                           bsr	equ	0xFE0
  1018                           indf2	equ	0xFDF
  1019                           fsr2h	equ	0xFDA
  1020                           fsr2l	equ	0xFD9
  1021                           status	equ	0xFD8


Data Sizes:
    Strings     0
    Constant    0
    Data        8
    BSS         41
    Persistent  0
    Stack       0

Auto Spaces:
    Space          Size  Autos    Used
    COMRAM           95     18      67
    BANK0           160      0       0
    BANK1           256      0       0
    BANK2           256      0       0
    BANK3           256      0       0
    BANK4           256      0       0
    BANK5           256      0       0
    BANK6           256      0       0
    BANK7           256      0       0
    BANK8           256      0       0
    BANK9           256      0       0
    BANK10          256      0       0
    BANK11          256      0       0
    BANK12          256      0       0
    BANK13          256      0       0
    BANK14           65      0       0

Pointer List with Targets:

    None.

Critical Paths under _main in COMRAM

    _main->_decodage

Critical Paths under _high_isr in COMRAM

    None.

Critical Paths under _main in BANK0

    None.

Critical Paths under _high_isr in BANK0

    None.

Critical Paths under _main in BANK1

    None.

Critical Paths under _high_isr in BANK1

    None.

Critical Paths under _main in BANK2

    None.

Critical Paths under _high_isr in BANK2

    None.

Critical Paths under _main in BANK3

    None.

Critical Paths under _high_isr in BANK3

    None.

Critical Paths under _main in BANK4

    None.

Critical Paths under _high_isr in BANK4

    None.

Critical Paths under _main in BANK5

    None.

Critical Paths under _high_isr in BANK5

    None.

Critical Paths under _main in BANK6

    None.

Critical Paths under _high_isr in BANK6

    None.

Critical Paths under _main in BANK7

    None.

Critical Paths under _high_isr in BANK7

    None.

Critical Paths under _main in BANK8

    None.

Critical Paths under _high_isr in BANK8

    None.

Critical Paths under _main in BANK9

    None.

Critical Paths under _high_isr in BANK9

    None.

Critical Paths under _main in BANK10

    None.

Critical Paths under _high_isr in BANK10

    None.

Critical Paths under _main in BANK11

    None.

Critical Paths under _high_isr in BANK11

    None.

Critical Paths under _main in BANK12

    None.

Critical Paths under _high_isr in BANK12

    None.

Critical Paths under _main in BANK13

    None.

Critical Paths under _high_isr in BANK13

    None.

Critical Paths under _main in BANK14

    None.

Critical Paths under _high_isr in BANK14

    None.

Call Graph Tables:

 ---------------------------------------------------------------------------------
 (Depth) Function   	        Calls       Base Space   Used Autos Params    Refs
 ---------------------------------------------------------------------------------
 (0) _main                                                 0     0      0     120
                          _affichage
                           _decodage
                          _initComms
                          _initPorts
 ---------------------------------------------------------------------------------
 (1) _initPorts                                            0     0      0       0
 ---------------------------------------------------------------------------------
 (1) _initComms                                            0     0      0       0
 ---------------------------------------------------------------------------------
 (1) _decodage                                             1     1      0     120
                                             17 COMRAM     1     1      0
 ---------------------------------------------------------------------------------
 (1) _affichage                                            0     0      0       0
 ---------------------------------------------------------------------------------
 Estimated maximum stack depth 1
 ---------------------------------------------------------------------------------
 (Depth) Function   	        Calls       Base Space   Used Autos Params    Refs
 ---------------------------------------------------------------------------------
 (2) _high_isr                                            17    17      0       0
                                              0 COMRAM    17    17      0
 ---------------------------------------------------------------------------------
 Estimated maximum stack depth 2
 ---------------------------------------------------------------------------------

 Call Graph Graphs:

 _main (ROOT)
   _affichage
   _decodage
   _initComms
   _initPorts

 _high_isr (ROOT)

 Address spaces:
Name               Size   Autos  Total    Cost      Usage
BIGRAM             E40      0       0      35        0.0%
EEDATA             400      0       0       0        0.0%
BITBANK13          100      0       0      31        0.0%
BANK13             100      0       0      32        0.0%
BITBANK12          100      0       0      29        0.0%
BANK12             100      0       0      30        0.0%
BITBANK11          100      0       0      27        0.0%
BANK11             100      0       0      28        0.0%
BITBANK10          100      0       0      25        0.0%
BANK10             100      0       0      26        0.0%
BITBANK9           100      0       0      23        0.0%
BANK9              100      0       0      24        0.0%
BITBANK8           100      0       0      21        0.0%
BANK8              100      0       0      22        0.0%
BITBANK7           100      0       0      19        0.0%
BANK7              100      0       0      20        0.0%
BITBANK6           100      0       0      17        0.0%
BANK6              100      0       0      18        0.0%
BITBANK5           100      0       0      15        0.0%
BANK5              100      0       0      16        0.0%
BITBANK4           100      0       0      13        0.0%
BANK4              100      0       0      14        0.0%
BITBANK3           100      0       0      11        0.0%
BANK3              100      0       0      12        0.0%
BITBANK2           100      0       0       9        0.0%
BANK2              100      0       0      10        0.0%
BITBANK1           100      0       0       7        0.0%
BANK1              100      0       0       8        0.0%
BITBANK0            A0      0       0       4        0.0%
BANK0               A0      0       0       5        0.0%
BITCOMRAM           5F      0       0       0        0.0%
COMRAM              5F     12      43       1       70.5%
BITBANK14           41      0       0      33        0.0%
BANK14              41      0       0      34        0.0%
BITSFR_2             0      0       0      40        0.0%
SFR_2                0      0       0      40        0.0%
BITSFR_1             0      0       0      40        0.0%
SFR_1                0      0       0      40        0.0%
BITSFR               0      0       0      40        0.0%
SFR                  0      0       0      40        0.0%
STACK                0      0       0       2        0.0%
NULL                 0      0       0       0        0.0%
ABS                  0      0      43       6        0.0%
DATA                 0      0      43       3        0.0%
CODE                 0      0       0       0        0.0%


Microchip Technology PIC18 Macro Assembler V1.33 build 59893 
Symbol Table                                                                                   Fri Nov 21 10:41:32 2014

            __CFG_CP0$ON 000000              __CFG_CP1$ON 000000              __CFG_CP2$ON 000000  
            __CFG_CP3$ON 000000              __CFG_CPB$ON 000000              __CFG_CPD$ON 000000  
                     u55 00DE                       u56 00E0                       u65 00E8  
                     u66 00EA                       u75 00F2                       u76 00F4  
                     u85 00FC                       u86 00FE                       u95 0106  
                     u96 0108              _state_clock 0028                       bsr 000FE0  
            __CFG_BORV$3 000000                      l723 01B6                      l727 01F8  
                    l719 0188                      l751 02C2                      _GIE 007F97  
                    u105 0110                      u106 0112                      u115 011A  
                    u116 011C                      u205 0174                      u125 0124  
                    u206 0176                      u126 0126                      u135 012E  
                    u136 0130                      u145 0138                      u146 013A  
                    u155 0142                      u156 0144                      u165 014C  
                    u166 014E                      u175 0156                      u176 0158  
                    u185 0160                      u186 0162                      u195 016A  
                    u196 016C                      prod 000FF3                      wreg 000FE8  
           __CFG_IESO$ON 000000               _TXSTA2bits 000FBA                     _MASK 003C  
                   _PEIE 007F96             __CFG_WRT0$ON 000000             __CFG_WRT1$ON 000000  
           __CFG_WRT2$ON 000000             __CFG_WRT3$ON 000000            __CFG_EBTR0$ON 000000  
          __CFG_EBTR1$ON 000000            __CFG_EBTR2$ON 000000            __CFG_EBTR3$ON 000000  
           __CFG_WRTB$ON 000000             __CFG_WRTC$ON 000000             __CFG_WRTD$ON 000000  
          __CFG_EBTRB$ON 000000                     _main 02BA                     fsr0h 000FEA  
                   fsr1h 000FE2                     fsr0l 000FE9                     fsr2h 000FDA  
                   fsr1l 000FE1                     indf2 000FDF                     fsr2l 000FD9  
                   pclat 000FFA                     prodh 000FF4                     prodl 000FF3  
                   start 00D2            __CFG_RETEN$ON 000000             _BAUDCON2bits 000FB9  
                  ?_main 002A                    _RC2IF 007D25                    i1l743 0076  
                  i1l747 008A                    _SPBRG 000FAF                    _PORTA 000F80  
                  _PORTB 000F81                    _PORTC 000F82                    _TRISA 000F92  
                  _TRISB 000F93                    _TRISC 000F94           __CFG_FCMEN$OFF 000000  
                  tablat 000FF5                    status 000FD8           _compteur_clock 0027  
         __CFG_MCLRE$OFF 000000          __initialization 0256             __end_of_main 02CC  
                 ??_main 003C            __activetblptr 000000           __CFG_PLLCFG$ON 000000  
                 _ADCON1 000FC1                   _ANCON0 000F5D          __CFG_BBSIZ$BB2K 000000  
         __CFG_WDTEN$OFF 000000                   _INTCON 000FF2                   _RCREG2 000F7A  
                 _OSCCON 000FD3                   _SPBRG2 000F7B                   _TXREG2 000F79  
       __end_of_decodage 0216           __CFG_PWRTEN$ON 000000           __CFG_XINST$OFF 000000  
       __end_of_high_isr 00D2           __CFG_STVREN$ON 000000                   clear_0 025C  
                 _tampon 0029             __pdataCOMRAM 003C                   tblptrh 000FF7  
                 tblptrl 000FF6                   tblptru 000FF8               __accesstop 0060  
__end_of__initialization 0282       __size_of_affichage 00A2           __pcstackCOMRAM 002A  
     __size_of_initComms 0040       __size_of_initPorts 0032         __CFG_CANMX$PORTB 000000  
              ?_decodage 002A        __end_of_affichage 0178                  _SPBRGH2 000F7C  
              ?_high_isr 002A                  __Hparam 0000                  __Lparam 0000  
                __pcinit 0256                  __ramtop 0F00                  __ptext0 02BA  
                __ptext1 0288                  __ptext2 0216                  __ptext3 0178  
                __ptext4 00D6        __end_of_initComms 0256        __end_of_initPorts 02BA  
             ??_decodage 003B        __CFG_MSSPMSK$MSK7 000000               ??_high_isr 002A  
   end_of_initialization 0282                  postdec1 000FE5                  postinc0 000FEE  
              _PORTAbits 000F80                _PORTBbits 000F81                _PORTCbits 000F82  
       __CFG_FOSC$INTIO2 000000            __pidataCOMRAM 02CC      start_initialization 0256  
            __pbssCOMRAM 0001        __size_of_decodage 009E                _affichage 00D6  
      __size_of_high_isr 00BA              __pintcodelo 0018                _led_state 0015  
              _initComms 0216                _initPorts 0288                decodage@a 003B  
             ?_affichage 002A                 _PIE3bits 000FA3                 _PIR3bits 000FA4  
               _RCONbits 000FD0         __CFG_SOSCSEL$DIG 000000                _stock_led 0001  
             ?_initComms 002A               ?_initPorts 002A                copy_data0 0276  
               __Hrparam 0000                 __Lrparam 0000       __CFG_BOREN$SBORDIS 000000  
               _decodage 0178                 _high_isr 0018                 _compteur 0025  
            ??_affichage 003B            __size_of_main 0012      __CFG_INTOSCSEL$HIGH 000000  
            _OSCTUNEbits 000F9B              ??_initComms 003B              ??_initPorts 003B  
               intlevel1 0000               _RCSTA2bits 000FA6       __CFG_WDTPS$1048576 000000  
    __CFG_BORPWR$ZPBORMV 000000  
